; Function Attrs: nounwind uwtable
define hidden void @je_decay_reinit(ptr noundef %0, ptr noundef %1, i64 noundef %2) local_unnamed_addr #0 {
  %4 = getelementptr inbounds nuw i8, ptr %0, i64 120
  store atomic i64 %2, ptr %4 monotonic, align 8
  %5 = icmp sgt i64 %2, 0
  br i1 %5, label %6, label %9

6:                                                ; preds = %3
  %7 = getelementptr inbounds nuw i8, ptr %0, i64 128
  %8 = mul i64 %2, 1000000
  tail call void @je_nstime_init(ptr noundef nonnull %7, i64 noundef %8) #9
  tail call void @je_nstime_idivide(ptr noundef nonnull %7, i64 noundef 200) #9
  br label %9

9:                                                ; preds = %6, %3
  %10 = getelementptr inbounds nuw i8, ptr %0, i64 136
  tail call void @je_nstime_copy(ptr noundef nonnull %10, ptr noundef %1) #9
  %11 = ptrtoint ptr %0 to i64
  %12 = getelementptr inbounds nuw i8, ptr %0, i64 144
  store i64 %11, ptr %12, align 8, !tbaa !4
  tail call fastcc void @decay_deadline_init(ptr noundef nonnull %0)
  %13 = getelementptr inbounds nuw i8, ptr %0, i64 168
  tail call void @llvm.memset.p0.i64(ptr noundef nonnull align 8 dereferenceable(1608) %13, i8 0, i64 1608, i1 false)
  ret void
}